target datalayout = "e-m:e-p270:32:32-p271:32:32-p272:64:64-i64:64-i128:128-f80:128-n8:16:32:64-S128"
target triple = "x86_64-pc-linux-gnu"

%struct.dirent = type { i64, i64, i16, i8, [256 x i8] }

@.str.9 = private unnamed_addr constant [8 x i8] c"base/%u\00", align 1
@.str.10 = private unnamed_addr constant [10 x i8] c"pg_tblspc\00", align 1
@InterruptPending = external global i32, align 4
@.str.11 = private unnamed_addr constant [2 x i8] c".\00", align 1
@.str.12 = private unnamed_addr constant [3 x i8] c"..\00", align 1
@.str.13 = private unnamed_addr constant [12 x i8] c"%s/%s/%s/%u\00", align 1
@.str.14 = private unnamed_addr constant [16 x i8] c"PG_18_202502112\00", align 1

; Function Attrs: nounwind uwtable
define internal i64 @calculate_database_size(i32 noundef %0) #0 {
  %2 = alloca i32, align 4
  %3 = alloca i64, align 8
  %4 = alloca ptr, align 8
  %5 = alloca ptr, align 8
  %6 = alloca [1024 x i8], align 16
  %7 = alloca [1061 x i8], align 16
  %8 = alloca i32, align 4
  store i32 %0, ptr %2, align 4
  call void @llvm.lifetime.start.p0(i64 8, ptr %3) #10
  call void @llvm.lifetime.start.p0(i64 8, ptr %4) #10
  call void @llvm.lifetime.start.p0(i64 8, ptr %5) #10
  call void @llvm.lifetime.start.p0(i64 1024, ptr %6) #10
  call void @llvm.lifetime.start.p0(i64 1061, ptr %7) #10
  call void @llvm.lifetime.start.p0(i64 4, ptr %8) #10
  %9 = load i32, ptr %2, align 4
  %10 = call i32 @GetUserId()
  %11 = call i32 @object_aclcheck(i32 noundef 1262, i32 noundef %9, i32 noundef %10, i64 noundef 2048)
  store i32 %11, ptr %8, align 4
  %12 = load i32, ptr %8, align 4
  %13 = icmp ne i32 %12, 0
  br i1 %13, label %14, label %21

14:                                               ; preds = %1
  %15 = call i32 @GetUserId()
  %16 = call zeroext i1 @has_privs_of_role(i32 noundef %15, i32 noundef 3375)
  br i1 %16, label %21, label %17

17:                                               ; preds = %14
  %18 = load i32, ptr %8, align 4
  %19 = load i32, ptr %2, align 4
  %20 = call ptr @get_database_name(i32 noundef %19)
  call void @aclcheck_error(i32 noundef %18, i32 noundef 9, ptr noundef %20)
  br label %21

21:                                               ; preds = %17, %14, %1
  %22 = getelementptr inbounds [1061 x i8], ptr %7, i64 0, i64 0
  %23 = load i32, ptr %2, align 4
  %24 = call i32 (ptr, i64, ptr, ...) @pg_snprintf(ptr noundef %22, i64 noundef 1061, ptr noundef @.str.9, i32 noundef %23)
  %25 = getelementptr inbounds [1061 x i8], ptr %7, i64 0, i64 0
  %26 = call i64 @db_dir_size(ptr noundef %25)
  store i64 %26, ptr %3, align 8
  %27 = getelementptr inbounds [1024 x i8], ptr %6, i64 0, i64 0
  %28 = call i32 (ptr, i64, ptr, ...) @pg_snprintf(ptr noundef %27, i64 noundef 1024, ptr noundef @.str.10)
  %29 = getelementptr inbounds [1024 x i8], ptr %6, i64 0, i64 0
  %30 = call ptr @AllocateDir(ptr noundef %29)
  store ptr %30, ptr %4, align 8
  br label %31

31:                                               ; preds = %60, %59, %21
  %32 = load ptr, ptr %4, align 8
  %33 = getelementptr inbounds [1024 x i8], ptr %6, i64 0, i64 0
  %34 = call ptr @ReadDir(ptr noundef %32, ptr noundef %33)
  store ptr %34, ptr %5, align 8
  %35 = icmp ne ptr %34, null
  br i1 %35, label %36, label %71

36:                                               ; preds = %31
  br label %37

37:                                               ; preds = %36
  %38 = load volatile i32, ptr @InterruptPending, align 4
  %39 = icmp ne i32 %38, 0
  %40 = zext i1 %39 to i32
  %41 = sext i32 %40 to i64
  %42 = call i64 @llvm.expect.i64(i64 %41, i64 0)
  %43 = icmp ne i64 %42, 0
  br i1 %43, label %44, label %45

44:                                               ; preds = %37
  call void @ProcessInterrupts()
  br label %45

45:                                               ; preds = %44, %37
  br label %46

46:                                               ; preds = %45
  br label %47

47:                                               ; preds = %46
  %48 = load ptr, ptr %5, align 8
  %49 = getelementptr inbounds nuw %struct.dirent, ptr %48, i32 0, i32 4
  %50 = getelementptr inbounds [256 x i8], ptr %49, i64 0, i64 0
  %51 = call i32 @strcmp(ptr noundef %50, ptr noundef @.str.11) #12
  %52 = icmp eq i32 %51, 0
  br i1 %52, label %59, label %53

53:                                               ; preds = %47
  %54 = load ptr, ptr %5, align 8
  %55 = getelementptr inbounds nuw %struct.dirent, ptr %54, i32 0, i32 4
  %56 = getelementptr inbounds [256 x i8], ptr %55, i64 0, i64 0
  %57 = call i32 @strcmp(ptr noundef %56, ptr noundef @.str.12) #12
  %58 = icmp eq i32 %57, 0
  br i1 %58, label %59, label %60

59:                                               ; preds = %53, %47
  br label %31, !llvm.loop !4

60:                                               ; preds = %53
  %61 = getelementptr inbounds [1061 x i8], ptr %7, i64 0, i64 0
  %62 = load ptr, ptr %5, align 8
  %63 = getelementptr inbounds nuw %struct.dirent, ptr %62, i32 0, i32 4
  %64 = getelementptr inbounds [256 x i8], ptr %63, i64 0, i64 0
  %65 = load i32, ptr %2, align 4
  %66 = call i32 (ptr, i64, ptr, ...) @pg_snprintf(ptr noundef %61, i64 noundef 1061, ptr noundef @.str.13, ptr noundef @.str.10, ptr noundef %64, ptr noundef @.str.14, i32 noundef %65)
  %67 = getelementptr inbounds [1061 x i8], ptr %7, i64 0, i64 0
  %68 = call i64 @db_dir_size(ptr noundef %67)
  %69 = load i64, ptr %3, align 8
  %70 = add i64 %69, %68
  store i64 %70, ptr %3, align 8
  br label %31, !llvm.loop !4

71:                                               ; preds = %31
  %72 = load ptr, ptr %4, align 8
  %73 = call i32 @FreeDir(ptr noundef %72)
  %74 = load i64, ptr %3, align 8
  call void @llvm.lifetime.end.p0(i64 4, ptr %8) #10
  call void @llvm.lifetime.end.p0(i64 1061, ptr %7) #10
  call void @llvm.lifetime.end.p0(i64 1024, ptr %6) #10
  call void @llvm.lifetime.end.p0(i64 8, ptr %5) #10
  call void @llvm.lifetime.end.p0(i64 8, ptr %4) #10
  call void @llvm.lifetime.end.p0(i64 8, ptr %3) #10
  ret i64 %74
}