; Function Attrs: nounwind uwtable
define internal fastcc i64 @calculate_database_size(i32 noundef %0) unnamed_addr #0 {
  %2 = alloca [1024 x i8], align 16
  %3 = alloca [1061 x i8], align 16
  call void @llvm.lifetime.start.p0(i64 1024, ptr nonnull %2) #9
  call void @llvm.lifetime.start.p0(i64 1061, ptr nonnull %3) #9
  %4 = tail call i32 @GetUserId() #9
  %5 = tail call i32 @object_aclcheck(i32 noundef 1262, i32 noundef %0, i32 noundef %4, i64 noundef 2048) #9
  %.not = icmp eq i32 %5, 0
  br i1 %.not, label %11, label %6

6:                                                ; preds = %1
  %7 = tail call i32 @GetUserId() #9
  %8 = tail call zeroext i1 @has_privs_of_role(i32 noundef %7, i32 noundef 3375) #9
  br i1 %8, label %11, label %9

9:                                                ; preds = %6
  %10 = tail call ptr @get_database_name(i32 noundef %0) #9
  tail call void @aclcheck_error(i32 noundef %5, i32 noundef 9, ptr noundef %10) #9
  br label %11

11:                                               ; preds = %9, %6, %1
  %12 = call i32 (ptr, i64, ptr, ...) @pg_snprintf(ptr noundef nonnull %3, i64 noundef 1061, ptr noundef nonnull @.str.9, i32 noundef %0) #9
  %13 = call fastcc i64 @db_dir_size(ptr noundef %3)
  %14 = call i32 (ptr, i64, ptr, ...) @pg_snprintf(ptr noundef nonnull %2, i64 noundef 1024, ptr noundef nonnull @.str.10) #9
  %15 = call ptr @AllocateDir(ptr noundef nonnull %2) #9
  %16 = call ptr @ReadDir(ptr noundef %15, ptr noundef nonnull %2) #9
  %.not142022 = icmp eq ptr %16, null
  br i1 %.not142022, label %.outer._crit_edge, label %.lr.ph

.lr.ph:                                           ; preds = %11, %.outer
  %17 = phi ptr [ %38, %.outer ], [ %16, %11 ]
  %.0.ph23 = phi i64 [ %37, %.outer ], [ %13, %11 ]
  br label %18

18:                                               ; preds = %.lr.ph, %32
  %19 = phi ptr [ %17, %.lr.ph ], [ %33, %32 ]
  %20 = load volatile i32, ptr @InterruptPending, align 4
  %.not15 = icmp eq i32 %20, 0
  br i1 %.not15, label %sub_0, label %21, !prof !4

21:                                               ; preds = %18
  call void @ProcessInterrupts() #9
  br label %sub_0

sub_0:                                            ; preds = %21, %18
  %22 = getelementptr inbounds nuw i8, ptr %19, i64 19
  %23 = load i8, ptr %22, align 1
  %.not25 = icmp eq i8 %23, 46
  br i1 %.not25, label %.tail, label %.outer

.tail:                                            ; preds = %sub_0
  %24 = getelementptr inbounds nuw i8, ptr %19, i64 20
  %25 = load i8, ptr %24, align 1
  %26 = icmp eq i8 %25, 0
  br i1 %26, label %32, label %sub_118

sub_118:                                          ; preds = %.tail
  %27 = getelementptr inbounds nuw i8, ptr %19, i64 20
  %28 = load i8, ptr %27, align 1
  %.not27 = icmp eq i8 %28, 46
  br i1 %.not27, label %.tail16, label %.outer

.tail16:                                          ; preds = %sub_118
  %29 = getelementptr inbounds nuw i8, ptr %19, i64 21
  %30 = load i8, ptr %29, align 1
  %31 = icmp eq i8 %30, 0
  br i1 %31, label %32, label %.outer

32:                                               ; preds = %.tail16, %.tail
  %33 = call ptr @ReadDir(ptr noundef %15, ptr noundef nonnull %2) #9
  %.not14 = icmp eq ptr %33, null
  br i1 %.not14, label %.outer._crit_edge, label %18, !llvm.loop !5

.outer:                                           ; preds = %sub_0, %sub_118, %.tail16
  %34 = getelementptr inbounds nuw i8, ptr %19, i64 19
  %35 = call i32 (ptr, i64, ptr, ...) @pg_snprintf(ptr noundef nonnull %3, i64 noundef 1061, ptr noundef nonnull @.str.13, ptr noundef nonnull @.str.10, ptr noundef nonnull %34, ptr noundef nonnull @.str.14, i32 noundef %0) #9
  %36 = call fastcc i64 @db_dir_size(ptr noundef %3)
  %37 = add i64 %36, %.0.ph23
  %38 = call ptr @ReadDir(ptr noundef %15, ptr noundef nonnull %2) #9
  %.not1420 = icmp eq ptr %38, null
  br i1 %.not1420, label %.outer._crit_edge, label %.lr.ph, !llvm.loop !5

.outer._crit_edge:                                ; preds = %.outer, %32, %11
  %.0.ph.lcssa = phi i64 [ %13, %11 ], [ %.0.ph23, %32 ], [ %37, %.outer ]
  %39 = call i32 @FreeDir(ptr noundef %15) #9
  call void @llvm.lifetime.end.p0(i64 1061, ptr nonnull %3) #9
  call void @llvm.lifetime.end.p0(i64 1024, ptr nonnull %2) #9
  ret i64 %.0.ph.lcssa
}